; ModuleID = '22/1071.c'
source_filename = "22/1071.c"
target datalayout = "e-m:e-p270:32:32-p271:32:32-p272:64:64-i64:64-f80:128-n8:16:32:64-S128"
target triple = "x86_64-pc-linux-gnu"

@.str = private unnamed_addr constant [5 x i8] c"%d%c\00", align 1
@.str.1 = private unnamed_addr constant [3 x i8] c"No\00", align 1
@.str.2 = private unnamed_addr constant [3 x i8] c"%d\00", align 1

; Function Attrs: noinline nounwind uwtable
define dso_local i32 @main() #0 {
  %1 = alloca i32, align 4
  %2 = alloca i32, align 4
  %3 = alloca i32, align 4
  %4 = alloca [300 x i32], align 16
  %5 = alloca [300 x i32], align 16
  %6 = alloca i32, align 4
  %7 = alloca i32, align 4
  %8 = alloca [300 x i8], align 16
  store i32 0, i32* %1, align 4
  store i32 0, i32* %6, align 4
  store i32 0, i32* %7, align 4
  store i32 0, i32* %2, align 4
  br label %9

9:                                                ; preds = %25, %0
  %10 = load i32, i32* %2, align 4
  %11 = sext i32 %10 to i64
  %12 = getelementptr inbounds [300 x i32], [300 x i32]* %4, i64 0, i64 %11
  %13 = load i32, i32* %2, align 4
  %14 = sext i32 %13 to i64
  %15 = getelementptr inbounds [300 x i8], [300 x i8]* %8, i64 0, i64 %14
  %16 = call i32 (i8*, ...) @__isoc99_scanf(i8* getelementptr inbounds ([5 x i8], [5 x i8]* @.str, i64 0, i64 0), i32* %12, i8* %15)
  %17 = load i32, i32* %2, align 4
  %18 = sext i32 %17 to i64
  %19 = getelementptr inbounds [300 x i8], [300 x i8]* %8, i64 0, i64 %18
  %20 = load i8, i8* %19, align 1
  %21 = sext i8 %20 to i32
  %22 = icmp ne i32 %21, 44
  br i1 %22, label %23, label %24

23:                                               ; preds = %9
  br label %28

24:                                               ; preds = %9
  br label %25

25:                                               ; preds = %24
  %26 = load i32, i32* %2, align 4
  %27 = add nsw i32 %26, 1
  store i32 %27, i32* %2, align 4
  br label %9

28:                                               ; preds = %23
  %29 = load i32, i32* %2, align 4
  %30 = add nsw i32 %29, 1
  store i32 %30, i32* %3, align 4
  %31 = load i32, i32* %3, align 4
  %32 = icmp eq i32 %31, 1
  br i1 %32, label %33, label %35

33:                                               ; preds = %28
  %34 = call i32 (i8*, ...) @printf(i8* getelementptr inbounds ([3 x i8], [3 x i8]* @.str.1, i64 0, i64 0))
  br label %112

35:                                               ; preds = %28
  store i32 0, i32* %2, align 4
  br label %36

36:                                               ; preds = %53, %35
  %37 = load i32, i32* %2, align 4
  %38 = load i32, i32* %3, align 4
  %39 = icmp slt i32 %37, %38
  br i1 %39, label %40, label %56

40:                                               ; preds = %36
  %41 = load i32, i32* %2, align 4
  %42 = sext i32 %41 to i64
  %43 = getelementptr inbounds [300 x i32], [300 x i32]* %4, i64 0, i64 %42
  %44 = load i32, i32* %43, align 4
  %45 = load i32, i32* %6, align 4
  %46 = icmp sgt i32 %44, %45
  br i1 %46, label %47, label %52

47:                                               ; preds = %40
  %48 = load i32, i32* %2, align 4
  %49 = sext i32 %48 to i64
  %50 = getelementptr inbounds [300 x i32], [300 x i32]* %4, i64 0, i64 %49
  %51 = load i32, i32* %50, align 4
  store i32 %51, i32* %6, align 4
  br label %52

52:                                               ; preds = %47, %40
  br label %53

53:                                               ; preds = %52
  %54 = load i32, i32* %2, align 4
  %55 = add nsw i32 %54, 1
  store i32 %55, i32* %2, align 4
  br label %36

56:                                               ; preds = %36
  store i32 0, i32* %2, align 4
  br label %57

57:                                               ; preds = %79, %56
  %58 = load i32, i32* %2, align 4
  %59 = load i32, i32* %3, align 4
  %60 = icmp slt i32 %58, %59
  br i1 %60, label %61, label %82

61:                                               ; preds = %57
  %62 = load i32, i32* %2, align 4
  %63 = sext i32 %62 to i64
  %64 = getelementptr inbounds [300 x i32], [300 x i32]* %4, i64 0, i64 %63
  %65 = load i32, i32* %64, align 4
  %66 = load i32, i32* %6, align 4
  %67 = icmp slt i32 %65, %66
  br i1 %67, label %68, label %78

68:                                               ; preds = %61
  %69 = load i32, i32* %2, align 4
  %70 = sext i32 %69 to i64
  %71 = getelementptr inbounds [300 x i32], [300 x i32]* %4, i64 0, i64 %70
  %72 = load i32, i32* %71, align 4
  %73 = load i32, i32* %7, align 4
  %74 = sext i32 %73 to i64
  %75 = getelementptr inbounds [300 x i32], [300 x i32]* %5, i64 0, i64 %74
  store i32 %72, i32* %75, align 4
  %76 = load i32, i32* %7, align 4
  %77 = add nsw i32 %76, 1
  store i32 %77, i32* %7, align 4
  br label %78

78:                                               ; preds = %68, %61
  br label %79

79:                                               ; preds = %78
  %80 = load i32, i32* %2, align 4
  %81 = add nsw i32 %80, 1
  store i32 %81, i32* %2, align 4
  br label %57

82:                                               ; preds = %57
  %83 = load i32, i32* %7, align 4
  %84 = icmp eq i32 %83, 0
  br i1 %84, label %85, label %87

85:                                               ; preds = %82
  %86 = call i32 (i8*, ...) @printf(i8* getelementptr inbounds ([3 x i8], [3 x i8]* @.str.1, i64 0, i64 0))
  br label %111

87:                                               ; preds = %82
  store i32 0, i32* %6, align 4
  store i32 0, i32* %2, align 4
  br label %88

88:                                               ; preds = %105, %87
  %89 = load i32, i32* %2, align 4
  %90 = load i32, i32* %7, align 4
  %91 = icmp slt i32 %89, %90
  br i1 %91, label %92, label %108

92:                                               ; preds = %88
  %93 = load i32, i32* %2, align 4
  %94 = sext i32 %93 to i64
  %95 = getelementptr inbounds [300 x i32], [300 x i32]* %5, i64 0, i64 %94
  %96 = load i32, i32* %95, align 4
  %97 = load i32, i32* %6, align 4
  %98 = icmp sgt i32 %96, %97
  br i1 %98, label %99, label %104

99:                                               ; preds = %92
  %100 = load i32, i32* %2, align 4
  %101 = sext i32 %100 to i64
  %102 = getelementptr inbounds [300 x i32], [300 x i32]* %5, i64 0, i64 %101
  %103 = load i32, i32* %102, align 4
  store i32 %103, i32* %6, align 4
  br label %104

104:                                              ; preds = %99, %92
  br label %105

105:                                              ; preds = %104
  %106 = load i32, i32* %2, align 4
  %107 = add nsw i32 %106, 1
  store i32 %107, i32* %2, align 4
  br label %88

108:                                              ; preds = %88
  %109 = load i32, i32* %6, align 4
  %110 = call i32 (i8*, ...) @printf(i8* getelementptr inbounds ([3 x i8], [3 x i8]* @.str.2, i64 0, i64 0), i32 %109)
  br label %111

111:                                              ; preds = %108, %85
  br label %112

112:                                              ; preds = %111, %33
  ret i32 0
}

declare dso_local i32 @__isoc99_scanf(i8*, ...) #1

declare dso_local i32 @printf(i8*, ...) #1


!llvm.module.flags = !{!0}
!llvm.ident = !{!1}

!0 = !{i32 1, !"wchar_size", i32 4}
!1 = !{!"clang version 10.0.0-4ubuntu1 "}
